; Function Attrs: mustprogress uwtable
define noundef ptr @_ZN11OpenImageIO6v3_1_024bmp_input_imageio_createEv() local_unnamed_addr #6 personality ptr @__gxx_personality_v0 {
  %1 = tail call noundef ptr @_ZN11OpenImageIO6v3_1_010ImageInputnwEm(i64 noundef 472)
  invoke void @_ZN11OpenImageIO6v3_1_08BmpInputC2Ev(ptr noundef nonnull align 8 dereferenceable(472) %1)
          to label %2 unwind label %3

2:                                                ; preds = %0
  ret ptr %1

3:                                                ; preds = %0
  %4 = landingpad { ptr, i32 }
          cleanup
  tail call void @_ZN11OpenImageIO6v3_1_010ImageInputdlEPv(ptr noundef nonnull %1) #27
  resume { ptr, i32 } %4
}